; Function Attrs: mustprogress nofree norecurse nosync nounwind willreturn memory(argmem: readwrite) uwtable
define hidden void @_ZN19OpenColorIO_v2_4dev11Lut1DOpData17setOutputRawHalfsEb(ptr nocapture noundef nonnull align 8 dereferenceable(364) %this, i1 noundef zeroext %isRawHalfs) local_unnamed_addr #10 align 2 {
entry:
  %m_halfFlags = getelementptr inbounds i8, ptr %this, i64 224
  %0 = load i32, ptr %m_halfFlags, align 8
  %and = and i32 %0, -3
  %masksel = select i1 %isRawHalfs, i32 2, i32 0
  %cond = or disjoint i32 %and, %masksel
  store i32 %cond, ptr %m_halfFlags, align 8
  ret void
}